target datalayout = "e-m:e-p270:32:32-p271:32:32-p272:64:64-i64:64-i128:128-f80:128-n8:16:32:64-S128"
target triple = "x86_64-pc-linux-gnu"

%class.JvmtiEnvBase = type <{ %struct._jvmtiEnv, i32, i32, ptr, i8, [7 x i8], ptr, %struct.jvmtiEventCallbacks, %struct.jvmtiExtEventCallbacks, ptr, %class.JvmtiEnvEventEnable, %struct.jvmtiCapabilities, %struct.jvmtiCapabilities, i8, [7 x i8], ptr, i32, [4 x i8] }>
%struct._jvmtiEnv = type { ptr }
%struct.jvmtiEventCallbacks = type { ptr, ptr, ptr, ptr, ptr, ptr, ptr, ptr, ptr, ptr, ptr, ptr, ptr, ptr, ptr, ptr, ptr, ptr, ptr, ptr, ptr, ptr, ptr, ptr, ptr, ptr, ptr, ptr, ptr, ptr, ptr, ptr, ptr, ptr, ptr, ptr, ptr, ptr, ptr }
%struct.jvmtiExtEventCallbacks = type { ptr, ptr, ptr }
%class.JvmtiEnvEventEnable = type { %class.JvmtiEventEnabled, %class.JvmtiEventEnabled, %class.JvmtiEventEnabled }
%class.JvmtiEventEnabled = type { i64 }
%struct.jvmtiCapabilities = type { i64, i64 }

; Function Attrs: mustprogress nounwind uwtable
define hidden noundef zeroext i1 @_ZN12JvmtiEnvBase25use_version_1_1_semanticsEv(ptr noundef nonnull align 8 dereferenceable(460) %0) #1 align 2 {
  %2 = alloca ptr, align 8
  %3 = alloca i32, align 4
  %4 = alloca i32, align 4
  %5 = alloca i32, align 4
  store ptr %0, ptr %2, align 8
  %6 = load ptr, ptr %2, align 8
  %7 = getelementptr inbounds %class.JvmtiEnvBase, ptr %6, i32 0, i32 2
  %8 = load i32, ptr %7, align 4
  call void @_ZN11JvmtiExport21decode_version_valuesEiPiS0_S0_(i32 noundef %8, ptr noundef %3, ptr noundef %4, ptr noundef %5)
  %9 = load i32, ptr %3, align 4
  %10 = icmp eq i32 %9, 1
  br i1 %10, label %11, label %14

11:                                               ; preds = %1
  %12 = load i32, ptr %4, align 4
  %13 = icmp eq i32 %12, 1
  br label %14

14:                                               ; preds = %11, %1
  %15 = phi i1 [ false, %1 ], [ %13, %11 ]
  ret i1 %15
}