; Function Attrs: mustprogress nounwind uwtable
define hidden noundef zeroext i1 @_ZN12JvmtiEnvBase25use_version_1_1_semanticsEv(ptr nocapture noundef nonnull readonly align 8 dereferenceable(460) %0) local_unnamed_addr #0 align 2 {
  %2 = alloca i32, align 4
  %3 = alloca i32, align 4
  %4 = alloca i32, align 4
  %5 = getelementptr inbounds i8, ptr %0, i64 12
  %6 = load i32, ptr %5, align 4
  call void @_ZN11JvmtiExport21decode_version_valuesEiPiS0_S0_(i32 noundef %6, ptr noundef nonnull %2, ptr noundef nonnull %3, ptr noundef nonnull %4) #18
  %7 = load i32, ptr %2, align 4
  %8 = icmp eq i32 %7, 1
  %9 = load i32, ptr %3, align 4
  %10 = icmp eq i32 %9, 1
  %11 = select i1 %8, i1 %10, i1 false
  ret i1 %11
}